; Function Attrs: nounwind uwtable
define internal range(i32 0, 2) i32 @f_reaction(double %0, ptr noundef %1, ptr noundef %2, ptr noundef readonly captures(none) %3) #0 {
  %5 = tail call ptr @N_VGetArrayPointer(ptr noundef %1) #8
  %6 = icmp eq ptr %5, null
  br i1 %6, label %.loopexit.sink.split, label %7

7:                                                ; preds = %4
  %8 = tail call ptr @N_VGetArrayPointer(ptr noundef %2) #8
  %9 = icmp eq ptr %8, null
  br i1 %9, label %.loopexit.sink.split, label %check_flag.exit20.preheader

check_flag.exit20.preheader:                      ; preds = %7
  %10 = load i64, ptr %3, align 8, !tbaa !4
  %11 = icmp sgt i64 %10, 0
  br i1 %11, label %.lr.ph, label %.loopexit

.lr.ph:                                           ; preds = %check_flag.exit20.preheader
  %12 = getelementptr inbounds nuw i8, ptr %3, i64 32
  br label %check_flag.exit20

check_flag.exit20:                                ; preds = %.lr.ph, %check_flag.exit20
  %.025 = phi i64 [ 0, %.lr.ph ], [ %21, %check_flag.exit20 ]
  %13 = load double, ptr %12, align 8, !tbaa !13
  %14 = getelementptr inbounds nuw double, ptr %5, i64 %.025
  %15 = load double, ptr %14, align 8, !tbaa !23
  %16 = fmul double %13, %15
  %17 = fneg double %15
  %18 = tail call double @llvm.fmuladd.f64(double %17, double %15, double 1.000000e+00)
  %19 = fmul double %16, %18
  %20 = getelementptr inbounds nuw double, ptr %8, i64 %.025
  store double %19, ptr %20, align 8, !tbaa !23
  %21 = add nuw nsw i64 %.025, 1
  %exitcond.not = icmp eq i64 %21, %10
  br i1 %exitcond.not, label %.loopexit, label %check_flag.exit20

.loopexit.sink.split:                             ; preds = %7, %4
  %22 = load ptr, ptr @stderr, align 8, !tbaa !15
  %23 = tail call i32 (ptr, ptr, ...) @fprintf(ptr noundef %22, ptr noundef nonnull @.str.31, ptr noundef nonnull @.str.30) #9
  br label %.loopexit

.loopexit:                                        ; preds = %check_flag.exit20, %.loopexit.sink.split, %check_flag.exit20.preheader
  %.017 = phi i32 [ 0, %check_flag.exit20.preheader ], [ 1, %.loopexit.sink.split ], [ 0, %check_flag.exit20 ]
  ret i32 %.017
}